target datalayout = "e-m:e-p270:32:32-p271:32:32-p272:64:64-i64:64-i128:128-f80:128-n8:16:32:64-S128"
target triple = "x86_64-pc-linux-gnu"

%"class.std::vector" = type { %"struct.std::_Vector_base" }
%"struct.std::_Vector_base" = type { %"struct.std::_Vector_base<long, std::allocator<long>>::_Vector_impl" }
%"struct.std::_Vector_base<long, std::allocator<long>>::_Vector_impl" = type { %"struct.std::_Vector_base<long, std::allocator<long>>::_Vector_impl_data" }
%"struct.std::_Vector_base<long, std::allocator<long>>::_Vector_impl_data" = type { ptr, ptr, ptr }
%"struct.faiss::IndexIVF" = type <{ %"struct.faiss::Index.base", [4 x i8], %"struct.faiss::IndexIVFInterface", ptr, i8, [7 x i8], i64, i32, i32, %"struct.faiss::DirectMap", i8, [7 x i8] }>
%"struct.faiss::Index.base" = type <{ ptr, i32, [4 x i8], i64, i8, i8, [2 x i8], i32, float }>
%"struct.faiss::IndexIVFInterface" = type { ptr, %"struct.faiss::Level1Quantizer", i64, i64 }
%"struct.faiss::Level1Quantizer" = type { ptr, i64, i8, i8, [6 x i8], %"struct.faiss::ClusteringParameters", ptr }
%"struct.faiss::ClusteringParameters" = type <{ i32, i32, i8, i8, i8, i8, i8, [3 x i8], i32, i32, i32, [4 x i8], i64, i8, i8, [6 x i8] }>
%"struct.faiss::DirectMap" = type { i32, %"class.std::vector", %"class.std::unordered_map" }
%"class.std::unordered_map" = type { %"class.std::_Hashtable" }
%"class.std::_Hashtable" = type { ptr, i64, %"struct.std::__detail::_Hash_node_base", i64, %"struct.std::__detail::_Prime_rehash_policy", ptr }
%"struct.std::__detail::_Hash_node_base" = type { ptr }
%"struct.std::__detail::_Prime_rehash_policy" = type { float, i64 }

; Function Attrs: mustprogress nounwind uwtable
define noundef i64 @_ZNK5faiss15Level1Quantizer16coarse_code_sizeEv(ptr noundef nonnull align 8 dereferenceable(80) %0) #1 align 2 {
  %2 = alloca ptr, align 8
  %3 = alloca i64, align 8
  %4 = alloca i64, align 8
  store ptr %0, ptr %2, align 8, !tbaa !134
  %5 = load ptr, ptr %2, align 8
  call void @llvm.lifetime.start.p0(i64 8, ptr %3) #20
  %6 = getelementptr inbounds nuw %"struct.faiss::Level1Quantizer", ptr %5, i32 0, i32 1
  %7 = load i64, ptr %6, align 8, !tbaa !102
  %8 = sub i64 %7, 1
  store i64 %8, ptr %3, align 8, !tbaa !9
  call void @llvm.lifetime.start.p0(i64 8, ptr %4) #20
  store i64 0, ptr %4, align 8, !tbaa !9
  br label %9

9:                                                ; preds = %12, %1
  %10 = load i64, ptr %3, align 8, !tbaa !9
  %11 = icmp ugt i64 %10, 0
  br i1 %11, label %12, label %17

12:                                               ; preds = %9
  %13 = load i64, ptr %4, align 8, !tbaa !9
  %14 = add i64 %13, 1
  store i64 %14, ptr %4, align 8, !tbaa !9
  %15 = load i64, ptr %3, align 8, !tbaa !9
  %16 = lshr i64 %15, 8
  store i64 %16, ptr %3, align 8, !tbaa !9
  br label %9, !llvm.loop !221

17:                                               ; preds = %9
  %18 = load i64, ptr %4, align 8, !tbaa !9
  call void @llvm.lifetime.end.p0(i64 8, ptr %4) #20
  call void @llvm.lifetime.end.p0(i64 8, ptr %3) #20
  ret i64 %18
}

; Function Attrs: mustprogress nounwind uwtable
define noundef i64 @_ZNK5faiss8IndexIVF12sa_code_sizeEv(ptr noundef nonnull align 8 dereferenceable(265) %0) unnamed_addr #1 align 2 {
  %2 = alloca ptr, align 8
  %3 = alloca i64, align 8
  store ptr %0, ptr %2, align 8, !tbaa !45
  %4 = load ptr, ptr %2, align 8
  call void @llvm.lifetime.start.p0(i64 8, ptr %3) #20
  %5 = getelementptr inbounds i8, ptr %4, i64 48
  %6 = call noundef i64 @_ZNK5faiss15Level1Quantizer16coarse_code_sizeEv(ptr noundef nonnull align 8 dereferenceable(80) %5)
  store i64 %6, ptr %3, align 8, !tbaa !9
  %7 = getelementptr inbounds nuw %"struct.faiss::IndexIVF", ptr %4, i32 0, i32 6
  %8 = load i64, ptr %7, align 8, !tbaa !105
  %9 = load i64, ptr %3, align 8, !tbaa !9
  %10 = add i64 %8, %9
  call void @llvm.lifetime.end.p0(i64 8, ptr %3) #20
  ret i64 %10
}