; Function Attrs: mustprogress nofree norecurse nosync nounwind willreturn memory(argmem: read) uwtable
define noundef i64 @_ZNK5faiss8IndexIVF12sa_code_sizeEv(ptr noundef nonnull readonly align 8 captures(none) dereferenceable(265) %0) unnamed_addr #4 align 2 {
  %2 = getelementptr inbounds nuw i8, ptr %0, i64 56
  %3 = load i64, ptr %2, align 8, !tbaa !99
  %4 = add i64 %3, -1
  %.not5.i = icmp eq i64 %4, 0
  br i1 %.not5.i, label %_ZNK5faiss15Level1Quantizer16coarse_code_sizeEv.exit, label %.lr.ph.i

.lr.ph.i:                                         ; preds = %1, %.lr.ph.i
  %.07.i = phi i64 [ %5, %.lr.ph.i ], [ 0, %1 ]
  %.046.i = phi i64 [ %6, %.lr.ph.i ], [ %4, %1 ]
  %5 = add nuw nsw i64 %.07.i, 1
  %6 = lshr i64 %.046.i, 8
  %.not.i = icmp ult i64 %.046.i, 256
  br i1 %.not.i, label %_ZNK5faiss15Level1Quantizer16coarse_code_sizeEv.exit, label %.lr.ph.i, !llvm.loop !102

_ZNK5faiss15Level1Quantizer16coarse_code_sizeEv.exit: ; preds = %.lr.ph.i, %1
  %.0.lcssa.i = phi i64 [ 0, %1 ], [ %5, %.lr.ph.i ]
  %7 = getelementptr inbounds nuw i8, ptr %0, i64 160
  %8 = load i64, ptr %7, align 8, !tbaa !103
  %9 = add i64 %8, %.0.lcssa.i
  ret i64 %9
}